target datalayout = "e-m:e-p270:32:32-p271:32:32-p272:64:64-i64:64-i128:128-f80:128-n8:16:32:64-S128"
target triple = "x86_64-pc-linux-gnu"

%"struct.url::Parsed" = type { %"struct.url::Component", %"struct.url::Component", %"struct.url::Component", %"struct.url::Component", %"struct.url::Component", %"struct.url::Component", %"struct.url::Component", %"struct.url::Component", ptr }
%"struct.url::Component" = type { i32, i32 }

; Function Attrs: mustprogress nounwind uwtable
define linkonce_odr noundef i32 @_ZNK3url9Component3endEv(ptr noundef nonnull align 4 dereferenceable(8) %0) #1 comdat align 2 {
  %2 = alloca ptr, align 8
  store ptr %0, ptr %2, align 8, !tbaa !12
  %3 = load ptr, ptr %2, align 8
  %4 = getelementptr inbounds nuw %"struct.url::Component", ptr %3, i32 0, i32 0
  %5 = load i32, ptr %4, align 4, !tbaa !14
  %6 = getelementptr inbounds nuw %"struct.url::Component", ptr %3, i32 0, i32 1
  %7 = load i32, ptr %6, align 4, !tbaa !15
  %8 = add nsw i32 %5, %7
  ret i32 %8
}

; Function Attrs: mustprogress nounwind uwtable
define linkonce_odr noundef zeroext i1 @_ZNK3url9Component8is_validEv(ptr noundef nonnull align 4 dereferenceable(8) %0) #1 comdat align 2 {
  %2 = alloca ptr, align 8
  store ptr %0, ptr %2, align 8, !tbaa !12
  %3 = load ptr, ptr %2, align 8
  %4 = getelementptr inbounds nuw %"struct.url::Component", ptr %3, i32 0, i32 1
  %5 = load i32, ptr %4, align 4, !tbaa !15
  %6 = icmp ne i32 %5, -1
  ret i1 %6
}

; Function Attrs: mustprogress uwtable
define noundef i32 @_ZNK3url6Parsed21CountCharactersBeforeENS0_13ComponentTypeEb(ptr noundef nonnull align 8 dereferenceable(72) %0, i32 noundef %1, i1 noundef zeroext %2) #0 align 2 {
  %4 = alloca i32, align 4
  %5 = alloca ptr, align 8
  %6 = alloca i32, align 4
  %7 = alloca i8, align 1
  %8 = alloca i32, align 4
  %9 = alloca i32, align 4
  store ptr %0, ptr %5, align 8, !tbaa !3
  store i32 %1, ptr %6, align 4, !tbaa !18
  %10 = zext i1 %2 to i8
  store i8 %10, ptr %7, align 1, !tbaa !20
  %11 = load ptr, ptr %5, align 8
  %12 = load i32, ptr %6, align 4, !tbaa !18
  %13 = icmp eq i32 %12, 0
  br i1 %13, label %14, label %18

14:                                               ; preds = %3
  %15 = getelementptr inbounds nuw %"struct.url::Parsed", ptr %11, i32 0, i32 0
  %16 = getelementptr inbounds nuw %"struct.url::Component", ptr %15, i32 0, i32 0
  %17 = load i32, ptr %16, align 8, !tbaa !22
  store i32 %17, ptr %4, align 4
  br label %154

18:                                               ; preds = %3
  call void @llvm.lifetime.start.p0(i64 4, ptr %8) #13
  store i32 0, ptr %8, align 4, !tbaa !17
  %19 = getelementptr inbounds nuw %"struct.url::Parsed", ptr %11, i32 0, i32 0
  %20 = call noundef zeroext i1 @_ZNK3url9Component8is_validEv(ptr noundef nonnull align 4 dereferenceable(8) %19)
  br i1 %20, label %21, label %25

21:                                               ; preds = %18
  %22 = getelementptr inbounds nuw %"struct.url::Parsed", ptr %11, i32 0, i32 0
  %23 = call noundef i32 @_ZNK3url9Component3endEv(ptr noundef nonnull align 4 dereferenceable(8) %22)
  %24 = add nsw i32 %23, 1
  store i32 %24, ptr %8, align 4, !tbaa !17
  br label %25

25:                                               ; preds = %21, %18
  %26 = getelementptr inbounds nuw %"struct.url::Parsed", ptr %11, i32 0, i32 1
  %27 = call noundef zeroext i1 @_ZNK3url9Component8is_validEv(ptr noundef nonnull align 4 dereferenceable(8) %26)
  br i1 %27, label %28, label %39

28:                                               ; preds = %25
  %29 = load i32, ptr %6, align 4, !tbaa !18
  %30 = icmp sle i32 %29, 1
  br i1 %30, label %31, label %35

31:                                               ; preds = %28
  %32 = getelementptr inbounds nuw %"struct.url::Parsed", ptr %11, i32 0, i32 1
  %33 = getelementptr inbounds nuw %"struct.url::Component", ptr %32, i32 0, i32 0
  %34 = load i32, ptr %33, align 8, !tbaa !23
  store i32 %34, ptr %4, align 4
  store i32 1, ptr %9, align 4
  br label %153

35:                                               ; preds = %28
  %36 = getelementptr inbounds nuw %"struct.url::Parsed", ptr %11, i32 0, i32 1
  %37 = call noundef i32 @_ZNK3url9Component3endEv(ptr noundef nonnull align 4 dereferenceable(8) %36)
  %38 = add nsw i32 %37, 1
  store i32 %38, ptr %8, align 4, !tbaa !17
  br label %39

39:                                               ; preds = %35, %25
  %40 = getelementptr inbounds nuw %"struct.url::Parsed", ptr %11, i32 0, i32 2
  %41 = call noundef zeroext i1 @_ZNK3url9Component8is_validEv(ptr noundef nonnull align 4 dereferenceable(8) %40)
  br i1 %41, label %42, label %53

42:                                               ; preds = %39
  %43 = load i32, ptr %6, align 4, !tbaa !18
  %44 = icmp sle i32 %43, 2
  br i1 %44, label %45, label %49

45:                                               ; preds = %42
  %46 = getelementptr inbounds nuw %"struct.url::Parsed", ptr %11, i32 0, i32 2
  %47 = getelementptr inbounds nuw %"struct.url::Component", ptr %46, i32 0, i32 0
  %48 = load i32, ptr %47, align 8, !tbaa !24
  store i32 %48, ptr %4, align 4
  store i32 1, ptr %9, align 4
  br label %153

49:                                               ; preds = %42
  %50 = getelementptr inbounds nuw %"struct.url::Parsed", ptr %11, i32 0, i32 2
  %51 = call noundef i32 @_ZNK3url9Component3endEv(ptr noundef nonnull align 4 dereferenceable(8) %50)
  %52 = add nsw i32 %51, 1
  store i32 %52, ptr %8, align 4, !tbaa !17
  br label %53

53:                                               ; preds = %49, %39
  %54 = getelementptr inbounds nuw %"struct.url::Parsed", ptr %11, i32 0, i32 3
  %55 = call noundef zeroext i1 @_ZNK3url9Component8is_validEv(ptr noundef nonnull align 4 dereferenceable(8) %54)
  br i1 %55, label %56, label %66

56:                                               ; preds = %53
  %57 = load i32, ptr %6, align 4, !tbaa !18
  %58 = icmp sle i32 %57, 3
  br i1 %58, label %59, label %63

59:                                               ; preds = %56
  %60 = getelementptr inbounds nuw %"struct.url::Parsed", ptr %11, i32 0, i32 3
  %61 = getelementptr inbounds nuw %"struct.url::Component", ptr %60, i32 0, i32 0
  %62 = load i32, ptr %61, align 8, !tbaa !25
  store i32 %62, ptr %4, align 4
  store i32 1, ptr %9, align 4
  br label %153

63:                                               ; preds = %56
  %64 = getelementptr inbounds nuw %"struct.url::Parsed", ptr %11, i32 0, i32 3
  %65 = call noundef i32 @_ZNK3url9Component3endEv(ptr noundef nonnull align 4 dereferenceable(8) %64)
  store i32 %65, ptr %8, align 4, !tbaa !17
  br label %66

66:                                               ; preds = %63, %53
  %67 = getelementptr inbounds nuw %"struct.url::Parsed", ptr %11, i32 0, i32 4
  %68 = call noundef zeroext i1 @_ZNK3url9Component8is_validEv(ptr noundef nonnull align 4 dereferenceable(8) %67)
  br i1 %68, label %69, label %93

69:                                               ; preds = %66
  %70 = load i32, ptr %6, align 4, !tbaa !18
  %71 = icmp slt i32 %70, 4
  br i1 %71, label %78, label %72

72:                                               ; preds = %69
  %73 = load i32, ptr %6, align 4, !tbaa !18
  %74 = icmp eq i32 %73, 4
  br i1 %74, label %75, label %83

75:                                               ; preds = %72
  %76 = load i8, ptr %7, align 1, !tbaa !20, !range !26, !noundef !27
  %77 = trunc i8 %76 to i1
  br i1 %77, label %78, label %83

78:                                               ; preds = %75, %69
  %79 = getelementptr inbounds nuw %"struct.url::Parsed", ptr %11, i32 0, i32 4
  %80 = getelementptr inbounds nuw %"struct.url::Component", ptr %79, i32 0, i32 0
  %81 = load i32, ptr %80, align 8, !tbaa !28
  %82 = sub nsw i32 %81, 1
  store i32 %82, ptr %4, align 4
  store i32 1, ptr %9, align 4
  br label %153

83:                                               ; preds = %75, %72
  %84 = load i32, ptr %6, align 4, !tbaa !18
  %85 = icmp eq i32 %84, 4
  br i1 %85, label %86, label %90

86:                                               ; preds = %83
  %87 = getelementptr inbounds nuw %"struct.url::Parsed", ptr %11, i32 0, i32 4
  %88 = getelementptr inbounds nuw %"struct.url::Component", ptr %87, i32 0, i32 0
  %89 = load i32, ptr %88, align 8, !tbaa !28
  store i32 %89, ptr %4, align 4
  store i32 1, ptr %9, align 4
  br label %153

90:                                               ; preds = %83
  %91 = getelementptr inbounds nuw %"struct.url::Parsed", ptr %11, i32 0, i32 4
  %92 = call noundef i32 @_ZNK3url9Component3endEv(ptr noundef nonnull align 4 dereferenceable(8) %91)
  store i32 %92, ptr %8, align 4, !tbaa !17
  br label %93

93:                                               ; preds = %90, %66
  %94 = getelementptr inbounds nuw %"struct.url::Parsed", ptr %11, i32 0, i32 5
  %95 = call noundef zeroext i1 @_ZNK3url9Component8is_validEv(ptr noundef nonnull align 4 dereferenceable(8) %94)
  br i1 %95, label %96, label %106

96:                                               ; preds = %93
  %97 = load i32, ptr %6, align 4, !tbaa !18
  %98 = icmp sle i32 %97, 5
  br i1 %98, label %99, label %103

99:                                               ; preds = %96
  %100 = getelementptr inbounds nuw %"struct.url::Parsed", ptr %11, i32 0, i32 5
  %101 = getelementptr inbounds nuw %"struct.url::Component", ptr %100, i32 0, i32 0
  %102 = load i32, ptr %101, align 8, !tbaa !29
  store i32 %102, ptr %4, align 4
  store i32 1, ptr %9, align 4
  br label %153

103:                                              ; preds = %96
  %104 = getelementptr inbounds nuw %"struct.url::Parsed", ptr %11, i32 0, i32 5
  %105 = call noundef i32 @_ZNK3url9Component3endEv(ptr noundef nonnull align 4 dereferenceable(8) %104)
  store i32 %105, ptr %8, align 4, !tbaa !17
  br label %106

106:                                              ; preds = %103, %93
  %107 = getelementptr inbounds nuw %"struct.url::Parsed", ptr %11, i32 0, i32 6
  %108 = call noundef zeroext i1 @_ZNK3url9Component8is_validEv(ptr noundef nonnull align 4 dereferenceable(8) %107)
  br i1 %108, label %109, label %133

109:                                              ; preds = %106
  %110 = load i32, ptr %6, align 4, !tbaa !18
  %111 = icmp slt i32 %110, 6
  br i1 %111, label %118, label %112

112:                                              ; preds = %109
  %113 = load i32, ptr %6, align 4, !tbaa !18
  %114 = icmp eq i32 %113, 6
  br i1 %114, label %115, label %123

115:                                              ; preds = %112
  %116 = load i8, ptr %7, align 1, !tbaa !20, !range !26, !noundef !27
  %117 = trunc i8 %116 to i1
  br i1 %117, label %118, label %123

118:                                              ; preds = %115, %109
  %119 = getelementptr inbounds nuw %"struct.url::Parsed", ptr %11, i32 0, i32 6
  %120 = getelementptr inbounds nuw %"struct.url::Component", ptr %119, i32 0, i32 0
  %121 = load i32, ptr %120, align 8, !tbaa !30
  %122 = sub nsw i32 %121, 1
  store i32 %122, ptr %4, align 4
  store i32 1, ptr %9, align 4
  br label %153

123:                                              ; preds = %115, %112
  %124 = load i32, ptr %6, align 4, !tbaa !18
  %125 = icmp eq i32 %124, 6
  br i1 %125, label %126, label %130

126:                                              ; preds = %123
  %127 = getelementptr inbounds nuw %"struct.url::Parsed", ptr %11, i32 0, i32 6
  %128 = getelementptr inbounds nuw %"struct.url::Component", ptr %127, i32 0, i32 0
  %129 = load i32, ptr %128, align 8, !tbaa !30
  store i32 %129, ptr %4, align 4
  store i32 1, ptr %9, align 4
  br label %153

130:                                              ; preds = %123
  %131 = getelementptr inbounds nuw %"struct.url::Parsed", ptr %11, i32 0, i32 6
  %132 = call noundef i32 @_ZNK3url9Component3endEv(ptr noundef nonnull align 4 dereferenceable(8) %131)
  store i32 %132, ptr %8, align 4, !tbaa !17
  br label %133

133:                                              ; preds = %130, %106
  %134 = getelementptr inbounds nuw %"struct.url::Parsed", ptr %11, i32 0, i32 7
  %135 = call noundef zeroext i1 @_ZNK3url9Component8is_validEv(ptr noundef nonnull align 4 dereferenceable(8) %134)
  br i1 %135, label %136, label %151

136:                                              ; preds = %133
  %137 = load i32, ptr %6, align 4, !tbaa !18
  %138 = icmp eq i32 %137, 7
  br i1 %138, label %139, label %146

139:                                              ; preds = %136
  %140 = load i8, ptr %7, align 1, !tbaa !20, !range !26, !noundef !27
  %141 = trunc i8 %140 to i1
  br i1 %141, label %146, label %142

142:                                              ; preds = %139
  %143 = getelementptr inbounds nuw %"struct.url::Parsed", ptr %11, i32 0, i32 7
  %144 = getelementptr inbounds nuw %"struct.url::Component", ptr %143, i32 0, i32 0
  %145 = load i32, ptr %144, align 8, !tbaa !31
  store i32 %145, ptr %4, align 4
  store i32 1, ptr %9, align 4
  br label %153

146:                                              ; preds = %139, %136
  %147 = getelementptr inbounds nuw %"struct.url::Parsed", ptr %11, i32 0, i32 7
  %148 = getelementptr inbounds nuw %"struct.url::Component", ptr %147, i32 0, i32 0
  %149 = load i32, ptr %148, align 8, !tbaa !31
  %150 = sub nsw i32 %149, 1
  store i32 %150, ptr %4, align 4
  store i32 1, ptr %9, align 4
  br label %153

151:                                              ; preds = %133
  %152 = load i32, ptr %8, align 4, !tbaa !17
  store i32 %152, ptr %4, align 4
  store i32 1, ptr %9, align 4
  br label %153

153:                                              ; preds = %151, %146, %142, %126, %118, %99, %86, %78, %59, %45, %31
  call void @llvm.lifetime.end.p0(i64 4, ptr %8) #13
  br label %154

154:                                              ; preds = %153, %14
  %155 = load i32, ptr %4, align 4
  ret i32 %155
}