; Function Attrs: mustprogress nofree norecurse nosync nounwind willreturn memory(argmem: read) uwtable
define noundef i32 @_ZNK3url6Parsed21CountCharactersBeforeENS0_13ComponentTypeEb(ptr noundef nonnull readonly align 8 captures(none) dereferenceable(72) %0, i32 noundef %1, i1 noundef zeroext %2) local_unnamed_addr #4 align 2 {
  %4 = icmp eq i32 %1, 0
  br i1 %4, label %5, label %7

5:                                                ; preds = %3
  %6 = load i32, ptr %0, align 8, !tbaa !13
  br label %88

7:                                                ; preds = %3
  %8 = getelementptr inbounds nuw i8, ptr %0, i64 4
  %9 = load i32, ptr %8, align 4, !tbaa !8
  %.not26 = icmp eq i32 %9, -1
  %10 = load i32, ptr %0, align 8
  %11 = add i32 %9, 1
  %12 = add i32 %11, %10
  %.0 = select i1 %.not26, i32 0, i32 %12
  %13 = getelementptr inbounds nuw i8, ptr %0, i64 12
  %14 = load i32, ptr %13, align 4, !tbaa !8
  %.not27 = icmp eq i32 %14, -1
  br i1 %.not27, label %22, label %15

15:                                               ; preds = %7
  %16 = getelementptr inbounds nuw i8, ptr %0, i64 8
  %17 = icmp slt i32 %1, 2
  %18 = load i32, ptr %16, align 8, !tbaa !3
  br i1 %17, label %88, label %19

19:                                               ; preds = %15
  %20 = add nuw i32 %14, 1
  %21 = add i32 %20, %18
  br label %22

22:                                               ; preds = %19, %7
  %.1 = phi i32 [ %21, %19 ], [ %.0, %7 ]
  %23 = getelementptr inbounds nuw i8, ptr %0, i64 20
  %24 = load i32, ptr %23, align 4, !tbaa !8
  %.not28 = icmp eq i32 %24, -1
  br i1 %.not28, label %32, label %25

25:                                               ; preds = %22
  %26 = getelementptr inbounds nuw i8, ptr %0, i64 16
  %27 = icmp slt i32 %1, 3
  %28 = load i32, ptr %26, align 8, !tbaa !3
  br i1 %27, label %88, label %29

29:                                               ; preds = %25
  %30 = add nuw i32 %24, 1
  %31 = add i32 %30, %28
  br label %32

32:                                               ; preds = %29, %22
  %.2 = phi i32 [ %31, %29 ], [ %.1, %22 ]
  %33 = getelementptr inbounds nuw i8, ptr %0, i64 28
  %34 = load i32, ptr %33, align 4, !tbaa !8
  %.not29 = icmp eq i32 %34, -1
  br i1 %.not29, label %41, label %35

35:                                               ; preds = %32
  %36 = getelementptr inbounds nuw i8, ptr %0, i64 24
  %37 = icmp slt i32 %1, 4
  %38 = load i32, ptr %36, align 8, !tbaa !3
  br i1 %37, label %88, label %39

39:                                               ; preds = %35
  %40 = add nsw i32 %38, %34
  br label %41

41:                                               ; preds = %39, %32
  %.3 = phi i32 [ %40, %39 ], [ %.2, %32 ]
  %42 = getelementptr inbounds nuw i8, ptr %0, i64 32
  %43 = getelementptr inbounds nuw i8, ptr %0, i64 36
  %44 = load i32, ptr %43, align 4, !tbaa !8
  %.not30 = icmp eq i32 %44, -1
  br i1 %.not30, label %56, label %45

45:                                               ; preds = %41
  %46 = icmp slt i32 %1, 4
  br i1 %46, label %49, label %47

47:                                               ; preds = %45
  %48 = icmp eq i32 %1, 4
  %brmerge.not = and i1 %48, %2
  br i1 %brmerge.not, label %49, label %52

49:                                               ; preds = %47, %45
  %50 = load i32, ptr %42, align 8, !tbaa !14
  %51 = add nsw i32 %50, -1
  br label %88

52:                                               ; preds = %47
  %53 = load i32, ptr %42, align 8, !tbaa !3
  br i1 %48, label %88, label %54

54:                                               ; preds = %52
  %55 = add nsw i32 %53, %44
  br label %56

56:                                               ; preds = %54, %41
  %.4 = phi i32 [ %55, %54 ], [ %.3, %41 ]
  %57 = getelementptr inbounds nuw i8, ptr %0, i64 44
  %58 = load i32, ptr %57, align 4, !tbaa !8
  %.not = icmp eq i32 %58, -1
  br i1 %.not, label %65, label %59

59:                                               ; preds = %56
  %60 = getelementptr inbounds nuw i8, ptr %0, i64 40
  %61 = icmp slt i32 %1, 6
  %62 = load i32, ptr %60, align 8, !tbaa !3
  br i1 %61, label %88, label %63

63:                                               ; preds = %59
  %64 = add nsw i32 %62, %58
  br label %65

65:                                               ; preds = %63, %56
  %.5 = phi i32 [ %64, %63 ], [ %.4, %56 ]
  %66 = getelementptr inbounds nuw i8, ptr %0, i64 48
  %67 = getelementptr inbounds nuw i8, ptr %0, i64 52
  %68 = load i32, ptr %67, align 4, !tbaa !8
  %.not31 = icmp eq i32 %68, -1
  br i1 %.not31, label %80, label %69

69:                                               ; preds = %65
  %70 = icmp slt i32 %1, 6
  br i1 %70, label %73, label %71

71:                                               ; preds = %69
  %72 = icmp eq i32 %1, 6
  %brmerge23.not = and i1 %72, %2
  br i1 %brmerge23.not, label %73, label %76

73:                                               ; preds = %71, %69
  %74 = load i32, ptr %66, align 8, !tbaa !15
  %75 = add nsw i32 %74, -1
  br label %88

76:                                               ; preds = %71
  %77 = load i32, ptr %66, align 8, !tbaa !3
  br i1 %72, label %88, label %78

78:                                               ; preds = %76
  %79 = add nsw i32 %77, %68
  br label %80

80:                                               ; preds = %78, %65
  %.6 = phi i32 [ %79, %78 ], [ %.5, %65 ]
  %81 = getelementptr inbounds nuw i8, ptr %0, i64 60
  %82 = load i32, ptr %81, align 4, !tbaa !8
  %.not33 = icmp eq i32 %82, -1
  br i1 %.not33, label %88, label %83

83:                                               ; preds = %80
  %84 = getelementptr inbounds nuw i8, ptr %0, i64 56
  %85 = icmp ne i32 %1, 7
  %brmerge25 = or i1 %85, %2
  %86 = load i32, ptr %84, align 8, !tbaa !16
  %87 = sext i1 %brmerge25 to i32
  %spec.select = add nsw i32 %86, %87
  br label %88

88:                                               ; preds = %76, %59, %52, %35, %25, %15, %83, %49, %73, %80, %5
  %.017 = phi i32 [ %6, %5 ], [ %51, %49 ], [ %75, %73 ], [ %.6, %80 ], [ %spec.select, %83 ], [ %18, %15 ], [ %28, %25 ], [ %38, %35 ], [ %53, %52 ], [ %62, %59 ], [ %77, %76 ]
  ret i32 %.017
}